target datalayout = "e-m:e-p270:32:32-p271:32:32-p272:64:64-i64:64-i128:128-f80:128-n8:16:32:64-S128"
target triple = "x86_64-pc-linux-gnu"

%union.SourceSpan = type { i64 }
%struct.Decl_ = type { ptr, ptr, %union.SourceSpan, i64, %union.anon, i32, %union.anon.0, i64, ptr, ptr, ptr, %union.anon.1 }
%union.anon = type { ptr }
%union.anon.0 = type { i16 }
%union.anon.1 = type { %struct.FuncDecl }
%struct.FuncDecl = type { i32, [4 x i8], %struct.Signature_, i32, i32, %union.anon.8 }
%struct.Signature_ = type <{ %struct.CalleeAttributes, i16, i8, i32, i32, [4 x i8], ptr }>
%struct.CalleeAttributes = type { i8 }
%union.anon.8 = type { %struct.anon.9 }
%struct.anon.9 = type { i16, %union.anon.10 }
%union.anon.10 = type { ptr }
%struct.anon.2 = type { ptr, ptr, %union.anon.3 }
%union.anon.3 = type { %struct.BitStructDecl }
%struct.BitStructDecl = type { ptr, ptr, i8 }
%struct.TypeInfo_ = type { i16, ptr, %union.SourceSpan, %union.anon.56 }
%union.anon.56 = type { %struct.anon.57 }
%struct.anon.57 = type { ptr, ptr }
%struct.Type_ = type { i32, ptr, ptr, ptr, %union.anon.85, ptr, ptr, %union.anon.87 }
%union.anon.85 = type { ptr }
%union.anon.87 = type { %struct.TypeFunction }
%struct.TypeFunction = type { ptr, ptr, ptr }
%struct.TypeArray = type { ptr, i32 }

@.str.1 = private unnamed_addr constant [36 x i8] c"FATAL ERROR %s -> in %s @ in %s:%d \00", align 1
@.str.2 = private unnamed_addr constant [22 x i8] c"Should be unreachable\00", align 1
@.str.3 = private unnamed_addr constant [121 x i8] c"generated/home/dtcxzyw/WorkSpace/Projects/compilers/llvm-opt-benchmark/bench/c3c/c3c/src/compiler/sema_name_resolution.c\00", align 1
@__func__.sema_resolve_type_decl = private unnamed_addr constant [23 x i8] c"sema_resolve_type_decl\00", align 1

; Function Attrs: nounwind uwtable
define dso_local zeroext i1 @sema_resolve_type_decl(ptr noundef %0, ptr noundef %1) #0 {
  %3 = alloca i1, align 1
  %4 = alloca ptr, align 8
  %5 = alloca ptr, align 8
  store ptr %0, ptr %4, align 8
  store ptr %1, ptr %5, align 8
  %6 = load ptr, ptr %5, align 8
  %7 = getelementptr inbounds %struct.Type_, ptr %6, i32 0, i32 0
  %8 = load i32, ptr %7, align 8
  switch i32 %8, label %81 [
    i32 0, label %9
    i32 41, label %10
    i32 1, label %10
    i32 2, label %10
    i32 3, label %10
    i32 4, label %10
    i32 5, label %10
    i32 6, label %10
    i32 7, label %10
    i32 8, label %10
    i32 9, label %10
    i32 10, label %10
    i32 11, label %10
    i32 12, label %10
    i32 14, label %10
    i32 13, label %10
    i32 15, label %10
    i32 16, label %10
    i32 17, label %10
    i32 19, label %10
    i32 21, label %10
    i32 22, label %10
    i32 23, label %10
    i32 39, label %10
    i32 43, label %10
    i32 38, label %10
    i32 37, label %10
    i32 34, label %10
    i32 20, label %10
    i32 18, label %10
    i32 28, label %10
    i32 40, label %11
    i32 42, label %17
    i32 31, label %20
    i32 32, label %26
    i32 25, label %44
    i32 24, label %68
    i32 26, label %68
    i32 27, label %68
    i32 29, label %68
    i32 30, label %68
    i32 33, label %74
    i32 35, label %74
    i32 36, label %74
  ]

9:                                                ; preds = %2
  store i1 false, ptr %3, align 1
  br label %83

10:                                               ; preds = %2, %2, %2, %2, %2, %2, %2, %2, %2, %2, %2, %2, %2, %2, %2, %2, %2, %2, %2, %2, %2, %2, %2, %2, %2, %2, %2, %2, %2, %2
  store i1 true, ptr %3, align 1
  br label %83

11:                                               ; preds = %2
  %12 = load ptr, ptr %4, align 8
  %13 = load ptr, ptr %5, align 8
  %14 = getelementptr inbounds %struct.Type_, ptr %13, i32 0, i32 7
  %15 = load ptr, ptr %14, align 8
  %16 = call zeroext i1 @sema_resolve_type_decl(ptr noundef %12, ptr noundef %15)
  store i1 %16, ptr %3, align 1
  br label %83

17:                                               ; preds = %2
  br label %18

18:                                               ; preds = %17
  call void (ptr, ...) @error_exit(ptr noundef @.str.1, ptr noundef @.str.2, ptr noundef @__func__.sema_resolve_type_decl, ptr noundef @.str.3, i32 noundef 697) #6
  unreachable

19:                                               ; No predecessors!
  br label %20

20:                                               ; preds = %19, %2
  %21 = load ptr, ptr %4, align 8
  %22 = load ptr, ptr %5, align 8
  %23 = getelementptr inbounds %struct.Type_, ptr %22, i32 0, i32 1
  %24 = load ptr, ptr %23, align 8
  %25 = call zeroext i1 @sema_resolve_type_decl(ptr noundef %21, ptr noundef %24)
  store i1 %25, ptr %3, align 1
  br label %83

26:                                               ; preds = %2
  %27 = load ptr, ptr %4, align 8
  %28 = load ptr, ptr %5, align 8
  %29 = getelementptr inbounds %struct.Type_, ptr %28, i32 0, i32 7
  %30 = load ptr, ptr %29, align 8
  %31 = call zeroext i1 @sema_analyse_decl(ptr noundef %27, ptr noundef %30)
  br i1 %31, label %33, label %32

32:                                               ; preds = %26
  store i1 false, ptr %3, align 1
  br label %83

33:                                               ; preds = %26
  %34 = load ptr, ptr %4, align 8
  %35 = load ptr, ptr %5, align 8
  %36 = getelementptr inbounds %struct.Type_, ptr %35, i32 0, i32 7
  %37 = load ptr, ptr %36, align 8
  %38 = getelementptr inbounds %struct.Decl_, ptr %37, i32 0, i32 11
  %39 = getelementptr inbounds %struct.anon.2, ptr %38, i32 0, i32 2
  %40 = load ptr, ptr %39, align 8
  %41 = getelementptr inbounds %struct.TypeInfo_, ptr %40, i32 0, i32 1
  %42 = load ptr, ptr %41, align 8
  %43 = call zeroext i1 @sema_resolve_type_decl(ptr noundef %34, ptr noundef %42)
  store i1 %43, ptr %3, align 1
  br label %83

44:                                               ; preds = %2
  %45 = load ptr, ptr %5, align 8
  %46 = getelementptr inbounds %struct.Type_, ptr %45, i32 0, i32 7
  %47 = getelementptr inbounds %struct.TypeFunction, ptr %46, i32 0, i32 2
  %48 = load ptr, ptr %47, align 8
  %49 = icmp ne ptr %48, null
  br i1 %49, label %67, label %50

50:                                               ; preds = %44
  %51 = load ptr, ptr %5, align 8
  %52 = getelementptr inbounds %struct.Type_, ptr %51, i32 0, i32 7
  %53 = getelementptr inbounds %struct.TypeFunction, ptr %52, i32 0, i32 0
  %54 = load ptr, ptr %53, align 8
  %55 = getelementptr inbounds %struct.Decl_, ptr %54, i32 0, i32 3
  %56 = load i64, ptr %55, align 8
  %57 = and i64 %56, 127
  %58 = trunc i64 %57 to i32
  %59 = icmp eq i32 %58, 16
  br i1 %59, label %60, label %67

60:                                               ; preds = %50
  %61 = load ptr, ptr %4, align 8
  %62 = load ptr, ptr %5, align 8
  %63 = getelementptr inbounds %struct.Type_, ptr %62, i32 0, i32 7
  %64 = getelementptr inbounds %struct.TypeFunction, ptr %63, i32 0, i32 0
  %65 = load ptr, ptr %64, align 8
  %66 = call zeroext i1 @sema_analyse_decl(ptr noundef %61, ptr noundef %65)
  store i1 %66, ptr %3, align 1
  br label %83

67:                                               ; preds = %50, %44
  store i1 true, ptr %3, align 1
  br label %83

68:                                               ; preds = %2, %2, %2, %2, %2
  %69 = load ptr, ptr %4, align 8
  %70 = load ptr, ptr %5, align 8
  %71 = getelementptr inbounds %struct.Type_, ptr %70, i32 0, i32 7
  %72 = load ptr, ptr %71, align 8
  %73 = call zeroext i1 @sema_analyse_decl(ptr noundef %69, ptr noundef %72)
  store i1 %73, ptr %3, align 1
  br label %83

74:                                               ; preds = %2, %2, %2
  %75 = load ptr, ptr %4, align 8
  %76 = load ptr, ptr %5, align 8
  %77 = getelementptr inbounds %struct.Type_, ptr %76, i32 0, i32 7
  %78 = getelementptr inbounds %struct.TypeArray, ptr %77, i32 0, i32 0
  %79 = load ptr, ptr %78, align 8
  %80 = call zeroext i1 @sema_resolve_type_decl(ptr noundef %75, ptr noundef %79)
  store i1 %80, ptr %3, align 1
  br label %83

81:                                               ; preds = %2
  br label %82

82:                                               ; preds = %81
  call void (ptr, ...) @error_exit(ptr noundef @.str.1, ptr noundef @.str.2, ptr noundef @__func__.sema_resolve_type_decl, ptr noundef @.str.3, i32 noundef 717) #6
  unreachable

83:                                               ; preds = %74, %68, %67, %60, %33, %32, %20, %11, %10, %9
  %84 = load i1, ptr %3, align 1
  ret i1 %84
}