; Function Attrs: nounwind uwtable
define dso_local zeroext i1 @sema_resolve_type_decl(ptr noundef %0, ptr nocapture noundef readonly %1) local_unnamed_addr #2 {
  br label %tailrecurse

tailrecurse:                                      ; preds = %tailrecurse.backedge, %2
  %.tr18 = phi ptr [ %1, %2 ], [ %.tr18.be, %tailrecurse.backedge ]
  %3 = load i32, ptr %.tr18, align 8
  switch i32 %3, label %36 [
    i32 0, label %.loopexit.loopexit
    i32 41, label %.loopexit
    i32 1, label %.loopexit
    i32 2, label %.loopexit
    i32 3, label %.loopexit
    i32 4, label %.loopexit
    i32 5, label %.loopexit
    i32 6, label %.loopexit
    i32 7, label %.loopexit
    i32 8, label %.loopexit
    i32 9, label %.loopexit
    i32 10, label %.loopexit
    i32 11, label %.loopexit
    i32 12, label %.loopexit
    i32 14, label %.loopexit
    i32 13, label %.loopexit
    i32 15, label %.loopexit
    i32 16, label %.loopexit
    i32 17, label %.loopexit
    i32 19, label %.loopexit
    i32 21, label %.loopexit
    i32 22, label %.loopexit
    i32 23, label %.loopexit
    i32 39, label %.loopexit
    i32 43, label %.loopexit
    i32 38, label %.loopexit
    i32 37, label %.loopexit
    i32 34, label %.loopexit
    i32 20, label %.loopexit
    i32 18, label %.loopexit
    i32 28, label %.loopexit
    i32 40, label %4
    i32 42, label %6
    i32 31, label %7
    i32 32, label %9
    i32 25, label %18
    i32 24, label %30
    i32 26, label %30
    i32 27, label %30
    i32 29, label %30
    i32 30, label %30
    i32 33, label %34
    i32 35, label %34
    i32 36, label %34
  ]

4:                                                ; preds = %tailrecurse
  %5 = getelementptr inbounds i8, ptr %.tr18, i64 56
  br label %tailrecurse.backedge

tailrecurse.backedge:                             ; preds = %4, %7, %13, %34
  %.tr18.be.in = phi ptr [ %5, %4 ], [ %8, %7 ], [ %17, %13 ], [ %35, %34 ]
  %.tr18.be = load ptr, ptr %.tr18.be.in, align 8
  br label %tailrecurse

6:                                                ; preds = %tailrecurse
  tail call void (ptr, ...) @error_exit(ptr noundef nonnull @.str.1, ptr noundef nonnull @.str.2, ptr noundef nonnull @__func__.sema_resolve_type_decl, ptr noundef nonnull @.str.3, i32 noundef 697) #9
  unreachable

7:                                                ; preds = %tailrecurse
  %8 = getelementptr inbounds i8, ptr %.tr18, i64 8
  br label %tailrecurse.backedge

9:                                                ; preds = %tailrecurse
  %10 = getelementptr inbounds i8, ptr %.tr18, i64 56
  %11 = load ptr, ptr %10, align 8
  %12 = tail call zeroext i1 @sema_analyse_decl(ptr noundef %0, ptr noundef %11) #10
  br i1 %12, label %13, label %.loopexit.loopexit

13:                                               ; preds = %9
  %14 = load ptr, ptr %10, align 8
  %15 = getelementptr inbounds i8, ptr %14, i64 96
  %16 = load ptr, ptr %15, align 8
  %17 = getelementptr inbounds i8, ptr %16, i64 8
  br label %tailrecurse.backedge

18:                                               ; preds = %tailrecurse
  %19 = getelementptr inbounds i8, ptr %.tr18, i64 72
  %20 = load ptr, ptr %19, align 8
  %.not = icmp eq ptr %20, null
  br i1 %.not, label %21, label %.loopexit

21:                                               ; preds = %18
  %22 = getelementptr inbounds i8, ptr %.tr18, i64 56
  %23 = load ptr, ptr %22, align 8
  %24 = getelementptr inbounds i8, ptr %23, i64 24
  %25 = load i64, ptr %24, align 8
  %26 = and i64 %25, 127
  %27 = icmp eq i64 %26, 16
  br i1 %27, label %28, label %.loopexit

28:                                               ; preds = %21
  %29 = tail call zeroext i1 @sema_analyse_decl(ptr noundef %0, ptr noundef nonnull %23) #10
  br label %.loopexit

30:                                               ; preds = %tailrecurse, %tailrecurse, %tailrecurse, %tailrecurse, %tailrecurse
  %31 = getelementptr inbounds i8, ptr %.tr18, i64 56
  %32 = load ptr, ptr %31, align 8
  %33 = tail call zeroext i1 @sema_analyse_decl(ptr noundef %0, ptr noundef %32) #10
  br label %.loopexit

34:                                               ; preds = %tailrecurse, %tailrecurse, %tailrecurse
  %35 = getelementptr inbounds i8, ptr %.tr18, i64 56
  br label %tailrecurse.backedge

36:                                               ; preds = %tailrecurse
  tail call void (ptr, ...) @error_exit(ptr noundef nonnull @.str.1, ptr noundef nonnull @.str.2, ptr noundef nonnull @__func__.sema_resolve_type_decl, ptr noundef nonnull @.str.3, i32 noundef 717) #9
  unreachable

.loopexit.loopexit:                               ; preds = %tailrecurse, %9
  br label %.loopexit

.loopexit:                                        ; preds = %tailrecurse, %tailrecurse, %tailrecurse, %tailrecurse, %tailrecurse, %tailrecurse, %tailrecurse, %tailrecurse, %tailrecurse, %tailrecurse, %tailrecurse, %tailrecurse, %tailrecurse, %tailrecurse, %tailrecurse, %tailrecurse, %tailrecurse, %tailrecurse, %tailrecurse, %tailrecurse, %tailrecurse, %tailrecurse, %tailrecurse, %tailrecurse, %tailrecurse, %tailrecurse, %tailrecurse, %tailrecurse, %tailrecurse, %tailrecurse, %.loopexit.loopexit, %18, %21, %30, %28
  %.0 = phi i1 [ %33, %30 ], [ %29, %28 ], [ true, %21 ], [ true, %18 ], [ false, %.loopexit.loopexit ], [ true, %tailrecurse ], [ true, %tailrecurse ], [ true, %tailrecurse ], [ true, %tailrecurse ], [ true, %tailrecurse ], [ true, %tailrecurse ], [ true, %tailrecurse ], [ true, %tailrecurse ], [ true, %tailrecurse ], [ true, %tailrecurse ], [ true, %tailrecurse ], [ true, %tailrecurse ], [ true, %tailrecurse ], [ true, %tailrecurse ], [ true, %tailrecurse ], [ true, %tailrecurse ], [ true, %tailrecurse ], [ true, %tailrecurse ], [ true, %tailrecurse ], [ true, %tailrecurse ], [ true, %tailrecurse ], [ true, %tailrecurse ], [ true, %tailrecurse ], [ true, %tailrecurse ], [ true, %tailrecurse ], [ true, %tailrecurse ], [ true, %tailrecurse ], [ true, %tailrecurse ], [ true, %tailrecurse ], [ true, %tailrecurse ]
  ret i1 %.0
}